target datalayout = "e-m:e-p270:32:32-p271:32:32-p272:64:64-i64:64-i128:128-f80:128-n8:16:32:64-S128"
target triple = "x86_64-pc-linux-gnu"

%struct.Abc_Ntk_t_ = type { i32, i32, ptr, ptr, ptr, ptr, ptr, ptr, ptr, ptr, ptr, ptr, ptr, [11 x i32], i32, i32, i32, i32, ptr, i32, ptr, ptr, i32, i32, i32, double, i32, %struct.Vec_Int_t_, ptr, ptr, ptr, ptr, ptr, float, i32, ptr, ptr, ptr, ptr, ptr, ptr, ptr, ptr, ptr, ptr, ptr, ptr, ptr, ptr, ptr, ptr, ptr, ptr, ptr, ptr, ptr }
%struct.Vec_Int_t_ = type { i32, i32, ptr }
%struct.Abc_Obj_t_ = type { ptr, ptr, i32, i32, %struct.Vec_Int_t_, %struct.Vec_Int_t_, %union.anon, %union.anon.0 }
%union.anon = type { ptr }
%union.anon.0 = type { ptr }
%struct.Vec_Ptr_t_ = type { i32, i32, ptr }

@.str.10 = private unnamed_addr constant [50 x i8] c"Abc_NtkBottommost: The network check has failed.\0A\00", align 1

; Function Attrs: nounwind uwtable
define internal ptr @Vec_PtrEntry(ptr noundef %0, i32 noundef %1) #0 {
  %3 = alloca ptr, align 8
  %4 = alloca i32, align 4
  store ptr %0, ptr %3, align 8
  store i32 %1, ptr %4, align 4
  %5 = load ptr, ptr %3, align 8
  %6 = getelementptr inbounds %struct.Vec_Ptr_t_, ptr %5, i32 0, i32 2
  %7 = load ptr, ptr %6, align 8
  %8 = load i32, ptr %4, align 4
  %9 = sext i32 %8 to i64
  %10 = getelementptr inbounds ptr, ptr %7, i64 %9
  %11 = load ptr, ptr %10, align 8
  ret ptr %11
}

; Function Attrs: nounwind uwtable
define internal ptr @Abc_NtkCreatePo(ptr noundef %0) #0 {
  %2 = alloca ptr, align 8
  store ptr %0, ptr %2, align 8
  %3 = load ptr, ptr %2, align 8
  %4 = call ptr @Abc_NtkCreateObj(ptr noundef %3, i32 noundef 3)
  ret ptr %4
}

; Function Attrs: nounwind uwtable
define internal i32 @Abc_ObjFanoutNum(ptr noundef %0) #0 {
  %2 = alloca ptr, align 8
  store ptr %0, ptr %2, align 8
  %3 = load ptr, ptr %2, align 8
  %4 = getelementptr inbounds %struct.Abc_Obj_t_, ptr %3, i32 0, i32 5
  %5 = getelementptr inbounds %struct.Vec_Int_t_, ptr %4, i32 0, i32 1
  %6 = load i32, ptr %5, align 4
  ret i32 %6
}

; Function Attrs: nounwind uwtable
define internal i32 @Abc_ObjIsNode(ptr noundef %0) #0 {
  %2 = alloca ptr, align 8
  store ptr %0, ptr %2, align 8
  %3 = load ptr, ptr %2, align 8
  %4 = getelementptr inbounds %struct.Abc_Obj_t_, ptr %3, i32 0, i32 3
  %5 = load i32, ptr %4, align 4
  %6 = and i32 %5, 15
  %7 = icmp eq i32 %6, 7
  %8 = zext i1 %7 to i32
  ret i32 %8
}

; Function Attrs: nounwind uwtable
define internal ptr @Abc_NtkObj(ptr noundef %0, i32 noundef %1) #0 {
  %3 = alloca ptr, align 8
  %4 = alloca i32, align 4
  store ptr %0, ptr %3, align 8
  store i32 %1, ptr %4, align 4
  %5 = load ptr, ptr %3, align 8
  %6 = getelementptr inbounds %struct.Abc_Ntk_t_, ptr %5, i32 0, i32 5
  %7 = load ptr, ptr %6, align 8
  %8 = load i32, ptr %4, align 4
  %9 = call ptr @Vec_PtrEntry(ptr noundef %7, i32 noundef %8)
  ret ptr %9
}

; Function Attrs: nounwind uwtable
define internal i32 @Vec_PtrSize(ptr noundef %0) #0 {
  %2 = alloca ptr, align 8
  store ptr %0, ptr %2, align 8
  %3 = load ptr, ptr %2, align 8
  %4 = getelementptr inbounds %struct.Vec_Ptr_t_, ptr %3, i32 0, i32 1
  %5 = load i32, ptr %4, align 4
  ret i32 %5
}

; Function Attrs: nounwind uwtable
define internal ptr @Abc_ObjFanin0(ptr noundef %0) #0 {
  %2 = alloca ptr, align 8
  store ptr %0, ptr %2, align 8
  %3 = load ptr, ptr %2, align 8
  %4 = getelementptr inbounds %struct.Abc_Obj_t_, ptr %3, i32 0, i32 0
  %5 = load ptr, ptr %4, align 8
  %6 = getelementptr inbounds %struct.Abc_Ntk_t_, ptr %5, i32 0, i32 5
  %7 = load ptr, ptr %6, align 8
  %8 = getelementptr inbounds %struct.Vec_Ptr_t_, ptr %7, i32 0, i32 2
  %9 = load ptr, ptr %8, align 8
  %10 = load ptr, ptr %2, align 8
  %11 = getelementptr inbounds %struct.Abc_Obj_t_, ptr %10, i32 0, i32 4
  %12 = getelementptr inbounds %struct.Vec_Int_t_, ptr %11, i32 0, i32 2
  %13 = load ptr, ptr %12, align 8
  %14 = getelementptr inbounds i32, ptr %13, i64 0
  %15 = load i32, ptr %14, align 4
  %16 = sext i32 %15 to i64
  %17 = getelementptr inbounds ptr, ptr %9, i64 %16
  %18 = load ptr, ptr %17, align 8
  ret ptr %18
}

; Function Attrs: nounwind uwtable
define internal ptr @Abc_NtkCo(ptr noundef %0, i32 noundef %1) #0 {
  %3 = alloca ptr, align 8
  %4 = alloca i32, align 4
  store ptr %0, ptr %3, align 8
  store i32 %1, ptr %4, align 4
  %5 = load ptr, ptr %3, align 8
  %6 = getelementptr inbounds %struct.Abc_Ntk_t_, ptr %5, i32 0, i32 9
  %7 = load ptr, ptr %6, align 8
  %8 = load i32, ptr %4, align 4
  %9 = call ptr @Vec_PtrEntry(ptr noundef %7, i32 noundef %8)
  ret ptr %9
}

; Function Attrs: nounwind uwtable
define internal i32 @Abc_NtkCoNum(ptr noundef %0) #0 {
  %2 = alloca ptr, align 8
  store ptr %0, ptr %2, align 8
  %3 = load ptr, ptr %2, align 8
  %4 = getelementptr inbounds %struct.Abc_Ntk_t_, ptr %3, i32 0, i32 9
  %5 = load ptr, ptr %4, align 8
  %6 = call i32 @Vec_PtrSize(ptr noundef %5)
  ret i32 %6
}

; Function Attrs: nounwind uwtable
define internal ptr @Abc_NtkCreatePi(ptr noundef %0) #0 {
  %2 = alloca ptr, align 8
  store ptr %0, ptr %2, align 8
  %3 = load ptr, ptr %2, align 8
  %4 = call ptr @Abc_NtkCreateObj(ptr noundef %3, i32 noundef 2)
  ret ptr %4
}

; Function Attrs: nounwind uwtable
define internal ptr @Abc_NtkCi(ptr noundef %0, i32 noundef %1) #0 {
  %3 = alloca ptr, align 8
  %4 = alloca i32, align 4
  store ptr %0, ptr %3, align 8
  store i32 %1, ptr %4, align 4
  %5 = load ptr, ptr %3, align 8
  %6 = getelementptr inbounds %struct.Abc_Ntk_t_, ptr %5, i32 0, i32 8
  %7 = load ptr, ptr %6, align 8
  %8 = load i32, ptr %4, align 4
  %9 = call ptr @Vec_PtrEntry(ptr noundef %7, i32 noundef %8)
  ret ptr %9
}

; Function Attrs: nounwind uwtable
define internal i32 @Abc_NtkCiNum(ptr noundef %0) #0 {
  %2 = alloca ptr, align 8
  store ptr %0, ptr %2, align 8
  %3 = load ptr, ptr %2, align 8
  %4 = getelementptr inbounds %struct.Abc_Ntk_t_, ptr %3, i32 0, i32 8
  %5 = load ptr, ptr %4, align 8
  %6 = call i32 @Vec_PtrSize(ptr noundef %5)
  ret i32 %6
}

; Function Attrs: nounwind uwtable
define ptr @Abc_NtkBottommost(ptr noundef %0, i32 noundef %1) #0 {
  %3 = alloca ptr, align 8
  %4 = alloca ptr, align 8
  %5 = alloca i32, align 4
  %6 = alloca ptr, align 8
  %7 = alloca ptr, align 8
  %8 = alloca ptr, align 8
  %9 = alloca i32, align 4
  store ptr %0, ptr %4, align 8
  store i32 %1, ptr %5, align 4
  %10 = call ptr @Abc_NtkAlloc(i32 noundef 3, i32 noundef 3, i32 noundef 1)
  store ptr %10, ptr %6, align 8
  %11 = load ptr, ptr %4, align 8
  %12 = getelementptr inbounds %struct.Abc_Ntk_t_, ptr %11, i32 0, i32 2
  %13 = load ptr, ptr %12, align 8
  %14 = call ptr @Extra_UtilStrsav(ptr noundef %13)
  %15 = load ptr, ptr %6, align 8
  %16 = getelementptr inbounds %struct.Abc_Ntk_t_, ptr %15, i32 0, i32 2
  store ptr %14, ptr %16, align 8
  %17 = load ptr, ptr %4, align 8
  call void @Abc_NtkCleanCopy(ptr noundef %17)
  %18 = load ptr, ptr %6, align 8
  %19 = call ptr @Abc_AigConst1(ptr noundef %18)
  %20 = load ptr, ptr %4, align 8
  %21 = call ptr @Abc_AigConst1(ptr noundef %20)
  %22 = getelementptr inbounds %struct.Abc_Obj_t_, ptr %21, i32 0, i32 7
  store ptr %19, ptr %22, align 8
  store i32 0, ptr %9, align 4
  br label %23

23:                                               ; preds = %39, %2
  %24 = load i32, ptr %9, align 4
  %25 = load ptr, ptr %4, align 8
  %26 = call i32 @Abc_NtkCiNum(ptr noundef %25)
  %27 = icmp slt i32 %24, %26
  br i1 %27, label %28, label %32

28:                                               ; preds = %23
  %29 = load ptr, ptr %4, align 8
  %30 = load i32, ptr %9, align 4
  %31 = call ptr @Abc_NtkCi(ptr noundef %29, i32 noundef %30)
  store ptr %31, ptr %7, align 8
  br label %32

32:                                               ; preds = %28, %23
  %33 = phi i1 [ false, %23 ], [ true, %28 ]
  br i1 %33, label %34, label %42

34:                                               ; preds = %32
  %35 = load ptr, ptr %6, align 8
  %36 = call ptr @Abc_NtkCreatePi(ptr noundef %35)
  %37 = load ptr, ptr %7, align 8
  %38 = getelementptr inbounds %struct.Abc_Obj_t_, ptr %37, i32 0, i32 7
  store ptr %36, ptr %38, align 8
  br label %39

39:                                               ; preds = %34
  %40 = load i32, ptr %9, align 4
  %41 = add nsw i32 %40, 1
  store i32 %41, ptr %9, align 4
  br label %23, !llvm.loop !19

42:                                               ; preds = %32
  store i32 0, ptr %9, align 4
  br label %43

43:                                               ; preds = %60, %42
  %44 = load i32, ptr %9, align 4
  %45 = load ptr, ptr %4, align 8
  %46 = call i32 @Abc_NtkCoNum(ptr noundef %45)
  %47 = icmp slt i32 %44, %46
  br i1 %47, label %48, label %52

48:                                               ; preds = %43
  %49 = load ptr, ptr %4, align 8
  %50 = load i32, ptr %9, align 4
  %51 = call ptr @Abc_NtkCo(ptr noundef %49, i32 noundef %50)
  store ptr %51, ptr %7, align 8
  br label %52

52:                                               ; preds = %48, %43
  %53 = phi i1 [ false, %43 ], [ true, %48 ]
  br i1 %53, label %54, label %63

54:                                               ; preds = %52
  %55 = load ptr, ptr %6, align 8
  %56 = load ptr, ptr %7, align 8
  %57 = call ptr @Abc_ObjFanin0(ptr noundef %56)
  %58 = load i32, ptr %5, align 4
  %59 = call ptr @Abc_NtkBottommost_rec(ptr noundef %55, ptr noundef %57, i32 noundef %58)
  br label %60

60:                                               ; preds = %54
  %61 = load i32, ptr %9, align 4
  %62 = add nsw i32 %61, 1
  store i32 %62, ptr %9, align 4
  br label %43, !llvm.loop !20

63:                                               ; preds = %52
  store i32 0, ptr %9, align 4
  br label %64

64:                                               ; preds = %95, %63
  %65 = load i32, ptr %9, align 4
  %66 = load ptr, ptr %6, align 8
  %67 = getelementptr inbounds %struct.Abc_Ntk_t_, ptr %66, i32 0, i32 5
  %68 = load ptr, ptr %67, align 8
  %69 = call i32 @Vec_PtrSize(ptr noundef %68)
  %70 = icmp slt i32 %65, %69
  br i1 %70, label %71, label %75

71:                                               ; preds = %64
  %72 = load ptr, ptr %6, align 8
  %73 = load i32, ptr %9, align 4
  %74 = call ptr @Abc_NtkObj(ptr noundef %72, i32 noundef %73)
  store ptr %74, ptr %8, align 8
  br label %75

75:                                               ; preds = %71, %64
  %76 = phi i1 [ false, %64 ], [ true, %71 ]
  br i1 %76, label %77, label %98

77:                                               ; preds = %75
  %78 = load ptr, ptr %8, align 8
  %79 = icmp eq ptr %78, null
  br i1 %79, label %84, label %80

80:                                               ; preds = %77
  %81 = load ptr, ptr %8, align 8
  %82 = call i32 @Abc_ObjIsNode(ptr noundef %81)
  %83 = icmp ne i32 %82, 0
  br i1 %83, label %85, label %84

84:                                               ; preds = %80, %77
  br label %94

85:                                               ; preds = %80
  %86 = load ptr, ptr %8, align 8
  %87 = call i32 @Abc_ObjFanoutNum(ptr noundef %86)
  %88 = icmp eq i32 %87, 0
  br i1 %88, label %89, label %93

89:                                               ; preds = %85
  %90 = load ptr, ptr %6, align 8
  %91 = call ptr @Abc_NtkCreatePo(ptr noundef %90)
  %92 = load ptr, ptr %8, align 8
  call void @Abc_ObjAddFanin(ptr noundef %91, ptr noundef %92)
  br label %93

93:                                               ; preds = %89, %85
  br label %94

94:                                               ; preds = %93, %84
  br label %95

95:                                               ; preds = %94
  %96 = load i32, ptr %9, align 4
  %97 = add nsw i32 %96, 1
  store i32 %97, ptr %9, align 4
  br label %64, !llvm.loop !21

98:                                               ; preds = %75
  %99 = load ptr, ptr %6, align 8
  call void @Abc_NtkAddDummyPiNames(ptr noundef %99)
  %100 = load ptr, ptr %6, align 8
  call void @Abc_NtkAddDummyPoNames(ptr noundef %100)
  %101 = load ptr, ptr %6, align 8
  %102 = call i32 @Abc_NtkCheck(ptr noundef %101)
  %103 = icmp ne i32 %102, 0
  br i1 %103, label %107, label %104

104:                                              ; preds = %98
  %105 = call i32 (ptr, ...) @printf(ptr noundef @.str.10)
  %106 = load ptr, ptr %6, align 8
  call void @Abc_NtkDelete(ptr noundef %106)
  store ptr null, ptr %3, align 8
  br label %109

107:                                              ; preds = %98
  %108 = load ptr, ptr %6, align 8
  store ptr %108, ptr %3, align 8
  br label %109

109:                                              ; preds = %107, %104
  %110 = load ptr, ptr %3, align 8
  ret ptr %110
}