; Function Attrs: nounwind uwtable
define ptr @Abc_NtkBottommost(ptr noundef %0, i32 noundef %1) local_unnamed_addr #0 {
  %3 = tail call ptr @Abc_NtkAlloc(i32 noundef 3, i32 noundef 3, i32 noundef 1) #11
  %4 = getelementptr inbounds nuw i8, ptr %0, i64 8
  %5 = load ptr, ptr %4, align 8
  %6 = tail call ptr @Extra_UtilStrsav(ptr noundef %5) #11
  %7 = getelementptr inbounds nuw i8, ptr %3, i64 8
  store ptr %6, ptr %7, align 8
  tail call void @Abc_NtkCleanCopy(ptr noundef %0) #11
  %8 = tail call ptr @Abc_AigConst1(ptr noundef %3) #11
  %9 = tail call ptr @Abc_AigConst1(ptr noundef %0) #11
  %10 = getelementptr inbounds nuw i8, ptr %9, i64 64
  store ptr %8, ptr %10, align 8
  %11 = getelementptr i8, ptr %0, i64 56
  %.val4852 = load ptr, ptr %11, align 8
  %12 = getelementptr i8, ptr %.val4852, i64 4
  %.val48.val53 = load i32, ptr %12, align 4
  %13 = icmp sgt i32 %.val48.val53, 0
  br i1 %13, label %.lr.ph, label %.critedge.preheader

.critedge.preheader:                              ; preds = %.lr.ph, %2
  %14 = getelementptr i8, ptr %0, i64 64
  %.val4556 = load ptr, ptr %14, align 8
  %15 = getelementptr i8, ptr %.val4556, i64 4
  %.val45.val57 = load i32, ptr %15, align 4
  %16 = icmp sgt i32 %.val45.val57, 0
  br i1 %16, label %.critedge, label %.critedge2.preheader

.lr.ph:                                           ; preds = %2, %.lr.ph
  %indvars.iv = phi i64 [ %indvars.iv.next, %.lr.ph ], [ 0, %2 ]
  %.val4855 = phi ptr [ %.val48, %.lr.ph ], [ %.val4852, %2 ]
  %17 = getelementptr i8, ptr %.val4855, i64 8
  %.val49.val = load ptr, ptr %17, align 8
  %18 = getelementptr inbounds nuw ptr, ptr %.val49.val, i64 %indvars.iv
  %19 = load ptr, ptr %18, align 8
  %20 = tail call ptr @Abc_NtkCreateObj(ptr noundef %3, i32 noundef 2) #11
  %21 = getelementptr inbounds nuw i8, ptr %19, i64 64
  store ptr %20, ptr %21, align 8
  %indvars.iv.next = add nuw nsw i64 %indvars.iv, 1
  %.val48 = load ptr, ptr %11, align 8
  %22 = getelementptr i8, ptr %.val48, i64 4
  %.val48.val = load i32, ptr %22, align 4
  %23 = sext i32 %.val48.val to i64
  %24 = icmp slt i64 %indvars.iv.next, %23
  br i1 %24, label %.lr.ph, label %.critedge.preheader, !llvm.loop !20

.critedge2.preheader:                             ; preds = %.critedge, %.critedge.preheader
  %25 = getelementptr inbounds nuw i8, ptr %3, i64 32
  %26 = load ptr, ptr %25, align 8
  %27 = getelementptr i8, ptr %26, i64 4
  %.val61 = load i32, ptr %27, align 4
  %28 = icmp sgt i32 %.val61, 0
  br i1 %28, label %.lr.ph63, label %.critedge4

.critedge:                                        ; preds = %.critedge.preheader, %.critedge
  %indvars.iv66 = phi i64 [ %indvars.iv.next67, %.critedge ], [ 0, %.critedge.preheader ]
  %.val4559 = phi ptr [ %.val45, %.critedge ], [ %.val4556, %.critedge.preheader ]
  %29 = getelementptr i8, ptr %.val4559, i64 8
  %.val46.val = load ptr, ptr %29, align 8
  %30 = getelementptr inbounds nuw ptr, ptr %.val46.val, i64 %indvars.iv66
  %31 = load ptr, ptr %30, align 8
  %.val42 = load ptr, ptr %31, align 8
  %32 = getelementptr i8, ptr %31, i64 32
  %.val43 = load ptr, ptr %32, align 8
  %33 = getelementptr i8, ptr %.val42, i64 32
  %.val42.val = load ptr, ptr %33, align 8
  %.val43.val = load i32, ptr %.val43, align 4
  %34 = getelementptr i8, ptr %.val42.val, i64 8
  %.val42.val.val = load ptr, ptr %34, align 8
  %35 = sext i32 %.val43.val to i64
  %36 = getelementptr inbounds ptr, ptr %.val42.val.val, i64 %35
  %37 = load ptr, ptr %36, align 8
  %38 = tail call ptr @Abc_NtkBottommost_rec(ptr noundef %3, ptr noundef %37, i32 noundef %1)
  %indvars.iv.next67 = add nuw nsw i64 %indvars.iv66, 1
  %.val45 = load ptr, ptr %14, align 8
  %39 = getelementptr i8, ptr %.val45, i64 4
  %.val45.val = load i32, ptr %39, align 4
  %40 = sext i32 %.val45.val to i64
  %41 = icmp slt i64 %indvars.iv.next67, %40
  br i1 %41, label %.critedge, label %.critedge2.preheader, !llvm.loop !21

.lr.ph63:                                         ; preds = %.critedge2.preheader, %.critedge2
  %42 = phi ptr [ %55, %.critedge2 ], [ %26, %.critedge2.preheader ]
  %indvars.iv69 = phi i64 [ %indvars.iv.next70, %.critedge2 ], [ 0, %.critedge2.preheader ]
  %43 = getelementptr i8, ptr %42, i64 8
  %.val47.val = load ptr, ptr %43, align 8
  %44 = getelementptr inbounds nuw ptr, ptr %.val47.val, i64 %indvars.iv69
  %45 = load ptr, ptr %44, align 8
  %46 = icmp eq ptr %45, null
  br i1 %46, label %.critedge2, label %47

47:                                               ; preds = %.lr.ph63
  %48 = getelementptr i8, ptr %45, i64 20
  %.val44 = load i32, ptr %48, align 4
  %49 = and i32 %.val44, 15
  %.not51 = icmp eq i32 %49, 7
  br i1 %.not51, label %50, label %.critedge2

50:                                               ; preds = %47
  %51 = getelementptr i8, ptr %45, i64 44
  %.val50 = load i32, ptr %51, align 4
  %52 = icmp eq i32 %.val50, 0
  br i1 %52, label %53, label %.critedge2

53:                                               ; preds = %50
  %54 = tail call ptr @Abc_NtkCreateObj(ptr noundef nonnull %3, i32 noundef 3) #11
  tail call void @Abc_ObjAddFanin(ptr noundef %54, ptr noundef nonnull %45) #11
  %.pre = load ptr, ptr %25, align 8
  br label %.critedge2

.critedge2:                                       ; preds = %47, %.lr.ph63, %53, %50
  %55 = phi ptr [ %42, %47 ], [ %42, %.lr.ph63 ], [ %.pre, %53 ], [ %42, %50 ]
  %indvars.iv.next70 = add nuw nsw i64 %indvars.iv69, 1
  %56 = getelementptr i8, ptr %55, i64 4
  %.val = load i32, ptr %56, align 4
  %57 = sext i32 %.val to i64
  %58 = icmp slt i64 %indvars.iv.next70, %57
  br i1 %58, label %.lr.ph63, label %.critedge4, !llvm.loop !22

.critedge4:                                       ; preds = %.critedge2, %.critedge2.preheader
  tail call void @Abc_NtkAddDummyPiNames(ptr noundef nonnull %3) #11
  tail call void @Abc_NtkAddDummyPoNames(ptr noundef nonnull %3) #11
  %59 = tail call i32 @Abc_NtkCheck(ptr noundef nonnull %3) #11
  %.not = icmp eq i32 %59, 0
  br i1 %.not, label %60, label %61

60:                                               ; preds = %.critedge4
  %puts = tail call i32 @puts(ptr nonnull dereferenceable(1) @str.12)
  tail call void @Abc_NtkDelete(ptr noundef nonnull %3) #11
  br label %61

61:                                               ; preds = %.critedge4, %60
  %.039 = phi ptr [ null, %60 ], [ %3, %.critedge4 ]
  ret ptr %.039
}